target datalayout = "e-m:e-p270:32:32-p271:32:32-p272:64:64-i64:64-i128:128-f80:128-n8:16:32:64-S128"
target triple = "x86_64-pc-linux-gnu"

%struct.git_hash_algo = type { ptr, i32, i64, i64, i64, ptr, ptr, ptr, ptr, ptr, ptr, ptr, ptr, ptr }
%struct.repository = type { ptr, ptr, ptr, ptr, ptr, %struct.strmap, %struct.strmap, %struct.repo_path_cache, ptr, ptr, ptr, ptr, %struct.repo_settings, ptr, ptr, ptr, ptr, ptr, ptr, i32, i32, i32, ptr, ptr, i32, i32, i8 }
%struct.strmap = type { %struct.hashmap, ptr, i8 }
%struct.hashmap = type { ptr, ptr, ptr, i32, i32, i32, i32, i8 }
%struct.repo_path_cache = type { ptr, ptr, ptr, ptr, ptr, ptr, ptr }
%struct.repo_settings = type { i32, i32, i32, i32, i32, i32, i32, i32, i32, i32, i32, i32, ptr, i32, i32, i32, i32, i32, i32, i32, i64, i64, i64 }
%struct.object_id = type { [32 x i8], i32 }
%struct.commit = type { %struct.object, i64, ptr, ptr, i32 }
%struct.object = type { i32, %struct.object_id }
%struct.packed_commit_list = type { ptr, i64, i64 }
%struct.write_commit_graph_context = type { ptr, ptr, ptr, %struct.oid_array, %struct.packed_commit_list, i32, i32, i64, ptr, i32, i64, ptr, i32, i32, ptr, ptr, ptr, i32, ptr, i8, ptr, ptr, i64, ptr, i32, i32, i32, i32, i32 }
%struct.oid_array = type { ptr, i64, i64, i32 }

@the_repository = external global ptr, align 8

; Function Attrs: nounwind uwtable
define internal i32 @write_graph_chunk_oids(ptr noundef %0, ptr noundef %1) #0 {
  %3 = alloca ptr, align 8
  %4 = alloca ptr, align 8
  %5 = alloca ptr, align 8
  %6 = alloca ptr, align 8
  %7 = alloca i32, align 4
  store ptr %0, ptr %3, align 8, !tbaa !282
  store ptr %1, ptr %4, align 8, !tbaa !78
  call void @llvm.lifetime.start.p0(i64 8, ptr %5) #12
  %8 = load ptr, ptr %4, align 8, !tbaa !78
  store ptr %8, ptr %5, align 8, !tbaa !197
  call void @llvm.lifetime.start.p0(i64 8, ptr %6) #12
  %9 = load ptr, ptr %5, align 8, !tbaa !197
  %10 = getelementptr inbounds nuw %struct.write_commit_graph_context, ptr %9, i32 0, i32 4
  %11 = getelementptr inbounds nuw %struct.packed_commit_list, ptr %10, i32 0, i32 0
  %12 = load ptr, ptr %11, align 8, !tbaa !222
  store ptr %12, ptr %6, align 8, !tbaa !165
  call void @llvm.lifetime.start.p0(i64 4, ptr %7) #12
  store i32 0, ptr %7, align 4, !tbaa !4
  br label %13

13:                                               ; preds = %42, %2
  %14 = load i32, ptr %7, align 4, !tbaa !4
  %15 = sext i32 %14 to i64
  %16 = load ptr, ptr %5, align 8, !tbaa !197
  %17 = getelementptr inbounds nuw %struct.write_commit_graph_context, ptr %16, i32 0, i32 4
  %18 = getelementptr inbounds nuw %struct.packed_commit_list, ptr %17, i32 0, i32 1
  %19 = load i64, ptr %18, align 8, !tbaa !218
  %20 = icmp ult i64 %15, %19
  br i1 %20, label %21, label %47

21:                                               ; preds = %13
  %22 = load ptr, ptr %5, align 8, !tbaa !197
  %23 = getelementptr inbounds nuw %struct.write_commit_graph_context, ptr %22, i32 0, i32 8
  %24 = load ptr, ptr %23, align 8, !tbaa !242
  %25 = load ptr, ptr %5, align 8, !tbaa !197
  %26 = getelementptr inbounds nuw %struct.write_commit_graph_context, ptr %25, i32 0, i32 10
  %27 = load i64, ptr %26, align 8, !tbaa !365
  %28 = add i64 %27, 1
  store i64 %28, ptr %26, align 8, !tbaa !365
  call void @display_progress(ptr noundef %24, i64 noundef %28)
  %29 = load ptr, ptr %3, align 8, !tbaa !282
  %30 = load ptr, ptr %6, align 8, !tbaa !165
  %31 = load ptr, ptr %30, align 8, !tbaa !52
  %32 = getelementptr inbounds nuw %struct.commit, ptr %31, i32 0, i32 0
  %33 = getelementptr inbounds nuw %struct.object, ptr %32, i32 0, i32 1
  %34 = getelementptr inbounds nuw %struct.object_id, ptr %33, i32 0, i32 0
  %35 = getelementptr inbounds [32 x i8], ptr %34, i64 0, i64 0
  %36 = load ptr, ptr @the_repository, align 8, !tbaa !8
  %37 = getelementptr inbounds nuw %struct.repository, ptr %36, i32 0, i32 17
  %38 = load ptr, ptr %37, align 8, !tbaa !74
  %39 = getelementptr inbounds nuw %struct.git_hash_algo, ptr %38, i32 0, i32 2
  %40 = load i64, ptr %39, align 8, !tbaa !75
  %41 = trunc i64 %40 to i32
  call void @hashwrite(ptr noundef %29, ptr noundef %35, i32 noundef %41)
  br label %42

42:                                               ; preds = %21
  %43 = load i32, ptr %7, align 4, !tbaa !4
  %44 = add nsw i32 %43, 1
  store i32 %44, ptr %7, align 4, !tbaa !4
  %45 = load ptr, ptr %6, align 8, !tbaa !165
  %46 = getelementptr inbounds nuw ptr, ptr %45, i32 1
  store ptr %46, ptr %6, align 8, !tbaa !165
  br label %13, !llvm.loop !368

47:                                               ; preds = %13
  call void @llvm.lifetime.end.p0(i64 4, ptr %7) #12
  call void @llvm.lifetime.end.p0(i64 8, ptr %6) #12
  call void @llvm.lifetime.end.p0(i64 8, ptr %5) #12
  ret i32 0
}