; Function Attrs: nounwind uwtable
define internal noundef i32 @write_graph_chunk_oids(ptr noundef %0, ptr noundef captures(none) %1) #0 {
  %3 = getelementptr inbounds nuw i8, ptr %1, i64 64
  %4 = load i64, ptr %3, align 8, !tbaa !222
  %.not = icmp eq i64 %4, 0
  br i1 %.not, label %._crit_edge, label %.lr.ph

.lr.ph:                                           ; preds = %2
  %5 = getelementptr inbounds nuw i8, ptr %1, i64 56
  %6 = load ptr, ptr %5, align 8, !tbaa !224
  %7 = getelementptr inbounds nuw i8, ptr %1, i64 96
  %8 = getelementptr inbounds nuw i8, ptr %1, i64 112
  br label %9

9:                                                ; preds = %.lr.ph, %9
  %indvars.iv = phi i64 [ 0, %.lr.ph ], [ %indvars.iv.next, %9 ]
  %.0910 = phi ptr [ %6, %.lr.ph ], [ %21, %9 ]
  %10 = load ptr, ptr %7, align 8, !tbaa !203
  %11 = load i64, ptr %8, align 8, !tbaa !303
  %12 = add i64 %11, 1
  store i64 %12, ptr %8, align 8, !tbaa !303
  tail call void @display_progress(ptr noundef %10, i64 noundef %12) #24
  %13 = load ptr, ptr %.0910, align 8, !tbaa !165
  %14 = getelementptr inbounds nuw i8, ptr %13, i64 4
  %15 = load ptr, ptr @the_repository, align 8, !tbaa !4
  %16 = getelementptr inbounds nuw i8, ptr %15, i64 400
  %17 = load ptr, ptr %16, align 8, !tbaa !71
  %18 = getelementptr inbounds nuw i8, ptr %17, i64 16
  %19 = load i64, ptr %18, align 8, !tbaa !72
  %20 = trunc i64 %19 to i32
  tail call void @hashwrite(ptr noundef %0, ptr noundef nonnull %14, i32 noundef %20) #24
  %indvars.iv.next = add nuw nsw i64 %indvars.iv, 1
  %21 = getelementptr inbounds nuw i8, ptr %.0910, i64 8
  %22 = load i64, ptr %3, align 8, !tbaa !222
  %23 = icmp ugt i64 %22, %indvars.iv.next
  br i1 %23, label %9, label %._crit_edge, !llvm.loop !306

._crit_edge:                                      ; preds = %9, %2
  ret i32 0
}